target datalayout = "e-m:e-p270:32:32-p271:32:32-p272:64:64-i64:64-i128:128-f80:128-n8:16:32:64-S128"
target triple = "x86_64-pc-linux-gnu"

%"struct.folly::ExecutorBlockingList" = type { ptr, %"struct.folly::ExecutorBlockingContext" }
%"struct.folly::ExecutorBlockingContext" = type { i8, i8, ptr, %"class.folly::Range" }
%"class.folly::Range" = type { ptr, ptr }
%"class.folly::ExecutorBlockingGuard" = type { %"struct.folly::ExecutorBlockingList" }

@_ZN5folly22executor_blocking_listE = thread_local global ptr @_ZN5follyL9emptyListE, align 8
@.str.5 = private unnamed_addr constant [14 x i8] c"dtor mismatch\00", align 1

; Function Attrs: noinline noreturn nounwind uwtable
define linkonce_odr hidden void @__clang_call_terminate(ptr noundef %0) #6 comdat {
  %2 = call ptr @__cxa_begin_catch(ptr %0) #19
  call void @_ZSt9terminatev() #18
  unreachable
}

; Function Attrs: alwaysinline mustprogress noreturn nounwind uwtable
define linkonce_odr hidden void @_ZN5folly14terminate_withISt11logic_errorJRA14_KcEEEvDpOT0_(ptr noundef nonnull align 1 dereferenceable(14) %0) #13 comdat {
  %2 = alloca ptr, align 8
  store ptr %0, ptr %2, align 8, !tbaa !15
  %3 = load ptr, ptr %2, align 8, !tbaa !15
  %4 = getelementptr inbounds [14 x i8], ptr %3, i64 0, i64 0
  call void @_ZN5folly6detail15terminate_with_ISt11logic_errorJPKcEEEvDpT0_(ptr noundef %4) #21
  unreachable
}

; Function Attrs: mustprogress nounwind uwtable
define void @_ZN5folly21ExecutorBlockingGuardD2Ev(ptr noundef nonnull align 8 dereferenceable(40) %0) unnamed_addr #0 align 2 personality ptr @__gxx_personality_v0 {
  %2 = alloca ptr, align 8
  store ptr %0, ptr %2, align 8, !tbaa !78
  %3 = load ptr, ptr %2, align 8
  %4 = call align 8 ptr @llvm.threadlocal.address.p0(ptr align 8 @_ZN5folly22executor_blocking_listE)
  %5 = load ptr, ptr %4, align 8, !tbaa !52
  %6 = getelementptr inbounds nuw %"class.folly::ExecutorBlockingGuard", ptr %3, i32 0, i32 0
  %7 = icmp ne ptr %5, %6
  br i1 %7, label %8, label %10

8:                                                ; preds = %1
  invoke void @_ZN5folly14terminate_withISt11logic_errorJRA14_KcEEEvDpOT0_(ptr noundef nonnull align 1 dereferenceable(14) @.str.5) #20
          to label %9 unwind label %15

9:                                                ; preds = %8
  unreachable

10:                                               ; preds = %1
  %11 = getelementptr inbounds nuw %"class.folly::ExecutorBlockingGuard", ptr %3, i32 0, i32 0
  %12 = getelementptr inbounds nuw %"struct.folly::ExecutorBlockingList", ptr %11, i32 0, i32 0
  %13 = load ptr, ptr %12, align 8, !tbaa !81
  %14 = call align 8 ptr @llvm.threadlocal.address.p0(ptr align 8 @_ZN5folly22executor_blocking_listE)
  store ptr %13, ptr %14, align 8, !tbaa !52
  ret void

15:                                               ; preds = %8
  %16 = landingpad { ptr, i32 }
          catch ptr null
  %17 = extractvalue { ptr, i32 } %16, 0
  call void @__clang_call_terminate(ptr %17) #18
  unreachable
}