; Function Attrs: mustprogress nounwind uwtable
define void @_ZN5folly21ExecutorBlockingGuardD2Ev(ptr noundef nonnull readonly align 8 captures(address) dereferenceable(40) %0) unnamed_addr #0 align 2 personality ptr @__gxx_personality_v0 {
  %2 = tail call align 8 ptr @llvm.threadlocal.address.p0(ptr align 8 @_ZN5folly22executor_blocking_listE)
  %3 = load ptr, ptr %2, align 8, !tbaa !26
  %.not = icmp eq ptr %3, %0
  br i1 %.not, label %5, label %4

4:                                                ; preds = %1
  tail call void @_ZN5folly6detail15terminate_with_ISt11logic_errorJPKcEEEvDpT0_(ptr noundef nonnull @.str.5) #26
  unreachable

5:                                                ; preds = %1
  %6 = load ptr, ptr %0, align 8, !tbaa !44
  store ptr %6, ptr %2, align 8, !tbaa !26
  ret void
}